; Function Attrs: mustprogress uwtable
define noundef zeroext i1 @ggml_backend_dev_offload_op(ptr noundef %0, ptr noundef %1) local_unnamed_addr #0 {
  %3 = getelementptr inbounds nuw i8, ptr %0, i64 88
  %4 = load ptr, ptr %3, align 8, !tbaa !73
  %.not = icmp eq ptr %4, null
  br i1 %.not, label %7, label %5

5:                                                ; preds = %2
  %6 = tail call noundef zeroext i1 %4(ptr noundef nonnull %0, ptr noundef %1)
  br label %7

7:                                                ; preds = %2, %5
  %.0 = phi i1 [ %6, %5 ], [ false, %2 ]
  ret i1 %.0
}